target datalayout = "e-m:e-p270:32:32-p271:32:32-p272:64:64-i64:64-i128:128-f80:128-n8:16:32:64-S128"
target triple = "x86_64-pc-linux-gnu"

%union.UElement = type { ptr }

; Function Attrs: mustprogress uwtable
define signext i8 @uhash_compareIChars_77(ptr %0, ptr %1) #0 {
  %3 = alloca i8, align 1
  %4 = alloca %union.UElement, align 8
  %5 = alloca %union.UElement, align 8
  %6 = alloca ptr, align 8
  %7 = alloca ptr, align 8
  %8 = alloca i32, align 4
  %9 = getelementptr inbounds nuw %union.UElement, ptr %4, i32 0, i32 0
  store ptr %0, ptr %9, align 8
  %10 = getelementptr inbounds nuw %union.UElement, ptr %5, i32 0, i32 0
  store ptr %1, ptr %10, align 8
  call void @llvm.lifetime.start.p0(i64 8, ptr %6) #9
  %11 = load ptr, ptr %4, align 8, !tbaa !27
  store ptr %11, ptr %6, align 8, !tbaa !47
  call void @llvm.lifetime.start.p0(i64 8, ptr %7) #9
  %12 = load ptr, ptr %5, align 8, !tbaa !27
  store ptr %12, ptr %7, align 8, !tbaa !47
  %13 = load ptr, ptr %6, align 8, !tbaa !47
  %14 = load ptr, ptr %7, align 8, !tbaa !47
  %15 = icmp eq ptr %13, %14
  br i1 %15, label %16, label %17

16:                                               ; preds = %2
  store i8 1, ptr %3, align 1
  store i32 1, ptr %8, align 4
  br label %56

17:                                               ; preds = %2
  %18 = load ptr, ptr %6, align 8, !tbaa !47
  %19 = icmp eq ptr %18, null
  br i1 %19, label %23, label %20

20:                                               ; preds = %17
  %21 = load ptr, ptr %7, align 8, !tbaa !47
  %22 = icmp eq ptr %21, null
  br i1 %22, label %23, label %24

23:                                               ; preds = %20, %17
  store i8 0, ptr %3, align 1
  store i32 1, ptr %8, align 4
  br label %56

24:                                               ; preds = %20
  br label %25

25:                                               ; preds = %42, %24
  %26 = load ptr, ptr %6, align 8, !tbaa !47
  %27 = load i8, ptr %26, align 1, !tbaa !27
  %28 = sext i8 %27 to i32
  %29 = icmp ne i32 %28, 0
  br i1 %29, label %30, label %40

30:                                               ; preds = %25
  %31 = load ptr, ptr %6, align 8, !tbaa !47
  %32 = load i8, ptr %31, align 1, !tbaa !27
  %33 = call signext i8 @uprv_asciitolower_77(i8 noundef signext %32)
  %34 = sext i8 %33 to i32
  %35 = load ptr, ptr %7, align 8, !tbaa !47
  %36 = load i8, ptr %35, align 1, !tbaa !27
  %37 = call signext i8 @uprv_asciitolower_77(i8 noundef signext %36)
  %38 = sext i8 %37 to i32
  %39 = icmp eq i32 %34, %38
  br label %40

40:                                               ; preds = %30, %25
  %41 = phi i1 [ false, %25 ], [ %39, %30 ]
  br i1 %41, label %42, label %47

42:                                               ; preds = %40
  %43 = load ptr, ptr %6, align 8, !tbaa !47
  %44 = getelementptr inbounds nuw i8, ptr %43, i32 1
  store ptr %44, ptr %6, align 8, !tbaa !47
  %45 = load ptr, ptr %7, align 8, !tbaa !47
  %46 = getelementptr inbounds nuw i8, ptr %45, i32 1
  store ptr %46, ptr %7, align 8, !tbaa !47
  br label %25, !llvm.loop !63

47:                                               ; preds = %40
  %48 = load ptr, ptr %6, align 8, !tbaa !47
  %49 = load i8, ptr %48, align 1, !tbaa !27
  %50 = sext i8 %49 to i32
  %51 = load ptr, ptr %7, align 8, !tbaa !47
  %52 = load i8, ptr %51, align 1, !tbaa !27
  %53 = sext i8 %52 to i32
  %54 = icmp eq i32 %50, %53
  %55 = zext i1 %54 to i8
  store i8 %55, ptr %3, align 1
  store i32 1, ptr %8, align 4
  br label %56

56:                                               ; preds = %47, %23, %16
  call void @llvm.lifetime.end.p0(i64 8, ptr %7) #9
  call void @llvm.lifetime.end.p0(i64 8, ptr %6) #9
  %57 = load i8, ptr %3, align 1
  ret i8 %57
}