; Function Attrs: mustprogress uwtable
define signext range(i8 0, 2) i8 @uhash_compareIChars_77(ptr readonly %0, ptr readonly %1) local_unnamed_addr #0 {
  %3 = icmp eq ptr %0, %1
  br i1 %3, label %21, label %4

4:                                                ; preds = %2
  %5 = icmp eq ptr %0, null
  %6 = icmp eq ptr %1, null
  %or.cond = or i1 %5, %6
  br i1 %or.cond, label %21, label %.preheader

.preheader:                                       ; preds = %4
  %7 = load i8, ptr %0, align 1, !tbaa !34
  %.not17 = icmp eq i8 %7, 0
  br i1 %.not17, label %.critedge, label %.lr.ph

.lr.ph:                                           ; preds = %.preheader, %13
  %8 = phi i8 [ %16, %13 ], [ %7, %.preheader ]
  %.019 = phi ptr [ %15, %13 ], [ %1, %.preheader ]
  %.01318 = phi ptr [ %14, %13 ], [ %0, %.preheader ]
  %9 = tail call signext i8 @uprv_asciitolower_77(i8 noundef signext %8)
  %10 = load i8, ptr %.019, align 1, !tbaa !34
  %11 = tail call signext i8 @uprv_asciitolower_77(i8 noundef signext %10)
  %12 = icmp eq i8 %9, %11
  br i1 %12, label %13, label %.lr.ph..critedge.loopexit_crit_edge

.lr.ph..critedge.loopexit_crit_edge:              ; preds = %.lr.ph
  %.pre.pre = load i8, ptr %.01318, align 1, !tbaa !34
  br label %.critedge

13:                                               ; preds = %.lr.ph
  %14 = getelementptr inbounds nuw i8, ptr %.01318, i64 1
  %15 = getelementptr inbounds nuw i8, ptr %.019, i64 1
  %16 = load i8, ptr %14, align 1, !tbaa !34
  %.not = icmp eq i8 %16, 0
  br i1 %.not, label %.critedge, label %.lr.ph, !llvm.loop !50

.critedge:                                        ; preds = %13, %.lr.ph..critedge.loopexit_crit_edge, %.preheader
  %17 = phi i8 [ 0, %.preheader ], [ %.pre.pre, %.lr.ph..critedge.loopexit_crit_edge ], [ 0, %13 ]
  %.0.lcssa = phi ptr [ %1, %.preheader ], [ %.019, %.lr.ph..critedge.loopexit_crit_edge ], [ %15, %13 ]
  %18 = load i8, ptr %.0.lcssa, align 1, !tbaa !34
  %19 = icmp eq i8 %17, %18
  %20 = zext i1 %19 to i8
  br label %21

21:                                               ; preds = %4, %2, %.critedge
  %.014 = phi i8 [ %20, %.critedge ], [ 1, %2 ], [ 0, %4 ]
  ret i8 %.014
}